target datalayout = "e-m:e-p270:32:32-p271:32:32-p272:64:64-i64:64-i128:128-f80:128-n8:16:32:64-S128"
target triple = "x86_64-pc-linux-gnu"

; Function Attrs: nounwind uwtable
define i32 @Abc_TtGetKey(ptr noundef %0, i32 noundef %1, i32 noundef %2) #0 {
  %4 = alloca ptr, align 8
  %5 = alloca i32, align 4
  %6 = alloca i32, align 4
  %7 = alloca i32, align 4
  %8 = alloca i32, align 4
  store ptr %0, ptr %4, align 8, !tbaa !21
  store i32 %1, ptr %5, align 4, !tbaa !8
  store i32 %2, ptr %6, align 4, !tbaa !8
  call void @llvm.lifetime.start.p0(i64 4, ptr %7) #12
  store i32 0, ptr %7, align 4, !tbaa !8
  call void @llvm.lifetime.start.p0(i64 4, ptr %8) #12
  store i32 0, ptr %8, align 4, !tbaa !8
  br label %9

9:                                                ; preds = %13, %3
  %10 = load i32, ptr %7, align 4, !tbaa !8
  %11 = load i32, ptr %5, align 4, !tbaa !8
  %12 = icmp ne i32 %10, %11
  br i1 %12, label %13, label %31

13:                                               ; preds = %9
  %14 = load ptr, ptr %4, align 8, !tbaa !21
  %15 = load i32, ptr %7, align 4, !tbaa !8
  %16 = add nsw i32 %15, 1
  store i32 %16, ptr %7, align 4, !tbaa !8
  %17 = sext i32 %15 to i64
  %18 = getelementptr inbounds i8, ptr %14, i64 %17
  %19 = load i8, ptr %18, align 1, !tbaa !23
  %20 = zext i8 %19 to i32
  %21 = load i32, ptr %8, align 4, !tbaa !8
  %22 = add i32 %21, %20
  store i32 %22, ptr %8, align 4, !tbaa !8
  %23 = load i32, ptr %8, align 4, !tbaa !8
  %24 = shl i32 %23, 10
  %25 = load i32, ptr %8, align 4, !tbaa !8
  %26 = add i32 %25, %24
  store i32 %26, ptr %8, align 4, !tbaa !8
  %27 = load i32, ptr %8, align 4, !tbaa !8
  %28 = lshr i32 %27, 6
  %29 = load i32, ptr %8, align 4, !tbaa !8
  %30 = xor i32 %29, %28
  store i32 %30, ptr %8, align 4, !tbaa !8
  br label %9, !llvm.loop !36

31:                                               ; preds = %9
  %32 = load i32, ptr %8, align 4, !tbaa !8
  %33 = shl i32 %32, 3
  %34 = load i32, ptr %8, align 4, !tbaa !8
  %35 = add i32 %34, %33
  store i32 %35, ptr %8, align 4, !tbaa !8
  %36 = load i32, ptr %8, align 4, !tbaa !8
  %37 = lshr i32 %36, 11
  %38 = load i32, ptr %8, align 4, !tbaa !8
  %39 = xor i32 %38, %37
  store i32 %39, ptr %8, align 4, !tbaa !8
  %40 = load i32, ptr %8, align 4, !tbaa !8
  %41 = shl i32 %40, 15
  %42 = load i32, ptr %8, align 4, !tbaa !8
  %43 = add i32 %42, %41
  store i32 %43, ptr %8, align 4, !tbaa !8
  %44 = load i32, ptr %8, align 4, !tbaa !8
  %45 = load i32, ptr %6, align 4, !tbaa !8
  %46 = urem i32 %44, %45
  call void @llvm.lifetime.end.p0(i64 4, ptr %8) #12
  call void @llvm.lifetime.end.p0(i64 4, ptr %7) #12
  ret i32 %46
}