; Function Attrs: nofree norecurse nosync nounwind memory(argmem: read) uwtable
define range(i32 0, -1) i32 @Abc_TtGetKey(ptr noundef readonly captures(none) %0, i32 noundef %1, i32 noundef %2) local_unnamed_addr #0 {
  %.not17 = icmp eq i32 %1, 0
  br i1 %.not17, label %._crit_edge, label %.lr.ph.preheader

.lr.ph.preheader:                                 ; preds = %3
  %4 = zext i32 %1 to i64
  br label %.lr.ph

.lr.ph:                                           ; preds = %.lr.ph.preheader, %.lr.ph
  %indvars.iv = phi i64 [ 0, %.lr.ph.preheader ], [ %indvars.iv.next, %.lr.ph ]
  %.019 = phi i32 [ 0, %.lr.ph.preheader ], [ %11, %.lr.ph ]
  %indvars.iv.next = add nuw nsw i64 %indvars.iv, 1
  %5 = getelementptr inbounds nuw i8, ptr %0, i64 %indvars.iv
  %6 = load i8, ptr %5, align 1, !tbaa !19
  %7 = zext i8 %6 to i32
  %8 = add i32 %.019, %7
  %9 = mul i32 %8, 1025
  %10 = lshr i32 %9, 6
  %11 = xor i32 %10, %9
  %.not = icmp eq i64 %indvars.iv.next, %4
  br i1 %.not, label %._crit_edge.loopexit, label %.lr.ph, !llvm.loop !27

._crit_edge.loopexit:                             ; preds = %.lr.ph
  %12 = mul i32 %11, 9
  br label %._crit_edge

._crit_edge:                                      ; preds = %._crit_edge.loopexit, %3
  %.0.lcssa = phi i32 [ 0, %3 ], [ %12, %._crit_edge.loopexit ]
  %13 = lshr i32 %.0.lcssa, 11
  %14 = xor i32 %13, %.0.lcssa
  %15 = mul i32 %14, 32769
  %16 = urem i32 %15, %2
  ret i32 %16
}